((lp1
I2
aI3
aI4
aI5
aI6
aI7
aI8
aI9
aI10
aI11
aI12
aI13
aI14
aI15
aI16
aI17
aI18
aI19
aI20
aI21
aI22
aI23
aI24
aI25
aI26
aI27
aI28
aI29
aI30
aI31
aI32
aI33
aI34
aI35
aI36
aI37
aI38
aI39
aI40
a(lp2
F0.55040430013589714
aF0.55046442680828023
aF0.51001857364277781
aF0.51031168870037469
aF0.53387042505460436
aF0.49386732355065266
aF0.4811948763377657
aF0.49417774663394209
aF0.48122222746146009
aF0.47759380726698253
aF0.48798078367343822
aF0.48289536004377015
aF0.47962997031545618
aF0.47786100404966847
aF0.48059164204394805
aF0.48599257202831769
aF0.48022193674013641
aF0.48284903198183776
aF0.47681554672496851
aF0.47003250742960689
aF0.47534769240137587
aF0.47272493704650703
aF0.47432729417902336
aF0.47038729737586155
aF0.47845710994020407
aF0.45984593533420154
aF0.48258189380584016
aF0.47866284461250991
aF0.47229089186541551
aF0.47098291987203389
aF0.47320235401670485
aF0.46746898286240046
aF0.4708518755777516
aF0.46337258567002426
aF0.46092988438699617
aF0.46086075849252189
aF0.46622679996961874
aF0.46163077618663206
aF0.46505095898533605
a(lp3
F9818822.25
aF14278997.555555558
aF2904496.1875
aF1772633.3600000001
aF3059855.1388888885
aF1130336.8163265307
aF768095.859375
aF922716.24691358022
aF843296.8899999999
aF610486.79338842968
aF319852.74305555556
aF418612.8284023669
aF456818.4540816326
aF279493.66222222225
aF415502.12109375
aF207190.12456747409
aF172557.64506172837
aF217867.2853185595
aF138450.74750000003
aF130745.48752834466
aF122944.35743801654
aF124530.12854442345
aF176480.95659722225
aF112152.02239999999
aF122058.84171597635
aF201438.86694101512
aF105661.30994897962
aF131152.45659928655
aF56190.365555555545
aF73170.39334027053
aF124678.2958984375
aF43072.310376492205
aF55954.751730103795
aF66836.158367346929
aF60247.175154320998
aF55416.560993425846
aF42165.045013850417
aF57193.83563445101
aF42003.324375000004
a(lp4
F0.67937491156838159
aF0.99201008251735145
aF1.3028522491455079
aF1.619175588383394
aF1.9341570536295574
aF2.2447285898800553
aF2.5569808532794318
aF2.8713976573944091
aF3.1813547220386442
aF3.4951970321791515
aF3.8803050016102039
aF4.1159572186677353
aF4.4235743965421408
aF4.7411958437699537
aF5.0406743035171973
aF5.3660779953002926
aF5.6744214820861814
aF5.9878537456194563
aF6.3141624763094146
aF6.6242173585024746
aF6.9282737929245517
aF7.2390242205725777
aF7.5586407415328489
aF7.8576844612757366
aF8.1802339129977764
aF8.488042885916574
aF8.7985707553657324
aF9.1216936936745281
aF9.4305454254150387
aF9.7482849171287143
aF10.061092070170812
aF10.371247349114254
aF10.693041025063931
aF10.999075880050659
aF11.327904096463831
aF11.634721719301664
aF11.924140334129333
aF12.261064681139858
aF12.570182902472359
at.