((lp1
I2
aI3
aI4
aI5
aI6
aI7
aI8
aI9
aI10
aI11
aI12
aI13
aI14
aI15
aI16
aI17
aI18
aI19
aI20
aI21
aI22
aI23
aI24
aI25
aI26
aI27
aI28
aI29
aI30
aI31
aI32
aI33
aI34
aI35
aI36
aI37
aI38
aI39
aI40
a(lp2
F0.6143591610745589
aF0.58051408274848804
aF0.58066656447655518
aF0.57635335199903537
aF0.58671441582474093
aF0.58776962615758443
aF0.58325787786936356
aF0.57969597411573948
aF0.55627427786717742
aF0.57093078983729295
aF0.58209213914500302
aF0.57694203116801124
aF0.5592598037336648
aF0.56677139148354194
aF0.5617896895174086
aF0.57185825437223881
aF0.56196777324155467
aF0.5347333178084458
aF0.55419770945991709
aF0.53324903188722772
aF0.53120118830148066
aF0.5696757396842248
aF0.55318628746136489
aF0.55716482444244697
aF0.55586144907338342
aF0.53691162049290986
aF0.53489019247037761
aF0.55390092758350551
aF0.5615295455670205
aF0.53207908670755666
aF0.55129408573848127
aF0.55307899283078299
aF0.53575706235164566
aF0.56156078158976963
aF0.54979815694687362
aF0.53525846429979218
aF0.55967737214006874
aF0.5593999496707508
aF0.55886976789042908
a(lp3
F18279900.25
aF11091284.222222222
aF10836767.1875
aF9644571.7599999998
aF5657781.805555556
aF5214373.3877551015
aF5154254.109375
aF3408072.9135802467
aF4604525.8899999997
aF2673378.7933884296
aF2822763.0763888885
aF1485774.9822485209
aF2155008.5969387759
aF1783782.995555555
aF1632686.74609375
aF2199649.6539792395
aF1523452.5339506173
aF1240764.8642659278
aF1156981.8475000001
aF1057792.1541950111
aF1083246.72107438
aF1096160.6502835541
aF1143222.7899305553
aF1052250.5824000002
aF792020.91863905336
aF826220.57064471894
aF745698.80994897918
aF876052.11177170044
aF713478.56555555551
aF618184.07075962541
aF614688.9833984375
aF728316.24977043155
aF494569.39878892736
aF795598.38693877531
aF586267.56404320977
aF591291.80423666909
aF718139.7818559556
aF561722.55358316889
aF586270.27437500015
a(lp4
F0.18599963188171387
aF0.26003885269165039
aF0.33144248050192127
aF0.40257244110107421
aF0.47488271713256835
aF0.54791039943695063
aF0.62107621355259668
aF0.69144459068775177
aF0.76239140331745148
aF0.83819462855656945
aF0.90919300281640258
aF0.9849437412462736
aF1.0518861202632679
aF1.1233555674552917
aF1.200496580865648
aF1.2717290841616118
aF1.338491400082906
aF1.4209776265280587
aF1.5018037144018679
aF1.5580488759644178
aF1.6313675922505997
aF1.7140881313997156
aF1.7723106724875315
aF1.8538075593801646
aF1.9351097131386781
aF2.0018707684108188
aF2.0792301654815675
aF2.1359112342198689
aF2.2126213841968112
aF2.2950246802398135
aF2.3649563055772047
aF2.4303486824035643
aF2.5002221292065037
aF2.5805434141403589
aF2.6536001777648925
aF2.7243359645207721
aF2.7912184357643128
aF2.859840234120687
aF2.9336002469062805
at.